; Function Attrs: nounwind uwtable
define internal noundef ptr @_operator_is_not(ptr readnone captures(none) %0, ptr noundef readonly captures(none) %1, i64 noundef %2) #0 {
  %or.cond = icmp eq i64 %2, 2
  br i1 %or.cond, label %6, label %4

4:                                                ; preds = %3
  %5 = tail call i32 @_PyArg_CheckPositional(ptr noundef nonnull @.str.6, i64 noundef %2, i64 noundef 2, i64 noundef 2) #7
  %.not = icmp eq i32 %5, 0
  br i1 %.not, label %_operator_is_not_impl.exit, label %6

6:                                                ; preds = %3, %4
  %7 = load ptr, ptr %1, align 8, !tbaa !17
  %8 = getelementptr i8, ptr %1, i64 8
  %9 = load ptr, ptr %8, align 8, !tbaa !17
  %.not.i = icmp eq ptr %7, %9
  %10 = select i1 %.not.i, ptr @_Py_FalseStruct, ptr @_Py_TrueStruct
  %11 = load i32, ptr %10, align 8, !tbaa !18
  %12 = icmp slt i32 %11, 0
  br i1 %12, label %_operator_is_not_impl.exit, label %13

13:                                               ; preds = %6
  %14 = add nuw i32 %11, 1
  store i32 %14, ptr %10, align 8, !tbaa !18
  br label %_operator_is_not_impl.exit

_operator_is_not_impl.exit:                       ; preds = %13, %6, %4
  %.0 = phi ptr [ null, %4 ], [ %10, %6 ], [ %10, %13 ]
  ret ptr %.0
}